(lp0
V{\u000a  "persons": [\u000a    {\u000a      "expressions": {\u000a        "sadness": {\u000a          "value": 0\u000a        }, \u000a        "neutral": {\u000a          "value": 0\u000a        }, \u000a        "disgust": {\u000a          "value": 27\u000a        }, \u000a        "anger": {\u000a          "value": 0\u000a        }, \u000a        "surprise": {\u000a          "value": 8\u000a        }, \u000a        "fear": {\u000a          "value": 0\u000a        }, \u000a        "happiness": {\u000a          "value": 43\u000a        }\u000a      }\u000a    }\u000a  ], \u000a  "img_height": 398, \u000a  "img_width": 435\u000a}
p1
aV{\u000a  "persons": [\u000a    {\u000a      "expressions": {\u000a        "sadness": {\u000a          "value": 6\u000a        }, \u000a        "neutral": {\u000a          "value": 0\u000a        }, \u000a        "disgust": {\u000a          "value": 4\u000a        }, \u000a        "anger": {\u000a          "value": 5\u000a        }, \u000a        "surprise": {\u000a          "value": 28\u000a        }, \u000a        "fear": {\u000a          "value": 45\u000a        }, \u000a        "happiness": {\u000a          "value": 0\u000a        }\u000a      }\u000a    }\u000a  ], \u000a  "img_height": 333, \u000a  "img_width": 260\u000a}
p2
aV{\u000a  "persons": [\u000a    {\u000a      "expressions": {\u000a        "sadness": {\u000a          "value": 0\u000a        }, \u000a        "neutral": {\u000a          "value": 0\u000a        }, \u000a        "disgust": {\u000a          "value": 6\u000a        }, \u000a        "anger": {\u000a          "value": 6\u000a        }, \u000a        "surprise": {\u000a          "value": 5\u000a        }, \u000a        "fear": {\u000a          "value": 45\u000a        }, \u000a        "happiness": {\u000a          "value": 17\u000a        }\u000a      }\u000a    }\u000a  ], \u000a  "img_height": 333, \u000a  "img_width": 260\u000a}
p3
aV{\u000a  "persons": [\u000a    {\u000a      "expressions": {\u000a        "sadness": {\u000a          "value": 1\u000a        }, \u000a        "neutral": {\u000a          "value": 0\u000a        }, \u000a        "disgust": {\u000a          "value": 3\u000a        }, \u000a        "anger": {\u000a          "value": 1\u000a        }, \u000a        "surprise": {\u000a          "value": 93\u000a        }, \u000a        "fear": {\u000a          "value": 11\u000a        }, \u000a        "happiness": {\u000a          "value": 27\u000a        }\u000a      }\u000a    }\u000a  ], \u000a  "img_height": 331, \u000a  "img_width": 301\u000a}
p4
aV{\u000a  "persons": [\u000a    {\u000a      "expressions": {\u000a        "sadness": {\u000a          "value": 14\u000a        }, \u000a        "neutral": {\u000a          "value": 0\u000a        }, \u000a        "disgust": {\u000a          "value": 1\u000a        }, \u000a        "anger": {\u000a          "value": 69\u000a        }, \u000a        "surprise": {\u000a          "value": 9\u000a        }, \u000a        "fear": {\u000a          "value": 10\u000a        }, \u000a        "happiness": {\u000a          "value": 0\u000a        }\u000a      }\u000a    }\u000a  ], \u000a  "img_height": 333, \u000a  "img_width": 260\u000a}
p5
aV{\u000a  "persons": [\u000a    {\u000a      "expressions": {\u000a        "sadness": {\u000a          "value": 0\u000a        }, \u000a        "neutral": {\u000a          "value": 0\u000a        }, \u000a        "disgust": {\u000a          "value": 22\u000a        }, \u000a        "anger": {\u000a          "value": 0\u000a        }, \u000a        "surprise": {\u000a          "value": 3\u000a        }, \u000a        "fear": {\u000a          "value": 0\u000a        }, \u000a        "happiness": {\u000a          "value": 64\u000a        }\u000a      }\u000a    }\u000a  ], \u000a  "img_height": 333, \u000a  "img_width": 260\u000a}
p6
aV{\u000a  "persons": [\u000a    {\u000a      "expressions": {\u000a        "sadness": {\u000a          "value": 0\u000a        }, \u000a        "neutral": {\u000a          "value": 0\u000a        }, \u000a        "disgust": {\u000a          "value": 3\u000a        }, \u000a        "anger": {\u000a          "value": 1\u000a        }, \u000a        "surprise": {\u000a          "value": 33\u000a        }, \u000a        "fear": {\u000a          "value": 45\u000a        }, \u000a        "happiness": {\u000a          "value": 20\u000a        }\u000a      }\u000a    }\u000a  ], \u000a  "img_height": 333, \u000a  "img_width": 260\u000a}
p7
aV{\u000a  "persons": [\u000a    {\u000a      "expressions": {\u000a        "sadness": {\u000a          "value": 6\u000a        }, \u000a        "neutral": {\u000a          "value": 0\u000a        }, \u000a        "disgust": {\u000a          "value": 3\u000a        }, \u000a        "anger": {\u000a          "value": 4\u000a        }, \u000a        "surprise": {\u000a          "value": 22\u000a        }, \u000a        "fear": {\u000a          "value": 48\u000a        }, \u000a        "happiness": {\u000a          "value": 14\u000a        }\u000a      }\u000a    }\u000a  ], \u000a  "img_height": 333, \u000a  "img_width": 260\u000a}
p8
aV{\u000a  "persons": [\u000a    {\u000a      "expressions": {\u000a        "sadness": {\u000a          "value": 51\u000a        }, \u000a        "neutral": {\u000a          "value": 0\u000a        }, \u000a        "disgust": {\u000a          "value": 0\u000a        }, \u000a        "anger": {\u000a          "value": 0\u000a        }, \u000a        "surprise": {\u000a          "value": 0\u000a        }, \u000a        "fear": {\u000a          "value": 16\u000a        }, \u000a        "happiness": {\u000a          "value": 13\u000a        }\u000a      }\u000a    }\u000a  ], \u000a  "img_height": 219, \u000a  "img_width": 281\u000a}
p9
aV{\u000a  "persons": [\u000a    {\u000a      "expressions": {\u000a        "sadness": {\u000a          "value": 12\u000a        }, \u000a        "neutral": {\u000a          "value": 0\u000a        }, \u000a        "disgust": {\u000a          "value": 3\u000a        }, \u000a        "anger": {\u000a          "value": 2\u000a        }, \u000a        "surprise": {\u000a          "value": 16\u000a        }, \u000a        "fear": {\u000a          "value": 1\u000a        }, \u000a        "happiness": {\u000a          "value": 93\u000a        }\u000a      }\u000a    }\u000a  ], \u000a  "img_height": 333, \u000a  "img_width": 260\u000a}
p10
aV{\u000a  "persons": [\u000a    {\u000a      "expressions": {\u000a        "sadness": {\u000a          "value": 8\u000a        }, \u000a        "neutral": {\u000a          "value": 0\u000a        }, \u000a        "disgust": {\u000a          "value": 8\u000a        }, \u000a        "anger": {\u000a          "value": 3\u000a        }, \u000a        "surprise": {\u000a          "value": 18\u000a        }, \u000a        "fear": {\u000a          "value": 22\u000a        }, \u000a        "happiness": {\u000a          "value": 16\u000a        }\u000a      }\u000a    }\u000a  ], \u000a  "img_height": 289, \u000a  "img_width": 292\u000a}
p11
aV{\u000a  "persons": [\u000a    {\u000a      "expressions": {\u000a        "sadness": {\u000a          "value": 0\u000a        }, \u000a        "neutral": {\u000a          "value": 0\u000a        }, \u000a        "disgust": {\u000a          "value": 23\u000a        }, \u000a        "anger": {\u000a          "value": 4\u000a        }, \u000a        "surprise": {\u000a          "value": 19\u000a        }, \u000a        "fear": {\u000a          "value": 0\u000a        }, \u000a        "happiness": {\u000a          "value": 0\u000a        }\u000a      }\u000a    }\u000a  ], \u000a  "img_height": 300, \u000a  "img_width": 305\u000a}
p12
aV{\u000a  "persons": [\u000a    {\u000a      "expressions": {\u000a        "sadness": {\u000a          "value": 14\u000a        }, \u000a        "neutral": {\u000a          "value": 0\u000a        }, \u000a        "disgust": {\u000a          "value": 6\u000a        }, \u000a        "anger": {\u000a          "value": 0\u000a        }, \u000a        "surprise": {\u000a          "value": 15\u000a        }, \u000a        "fear": {\u000a          "value": 8\u000a        }, \u000a        "happiness": {\u000a          "value": 29\u000a        }\u000a      }\u000a    }\u000a  ], \u000a  "img_height": 333, \u000a  "img_width": 260\u000a}
p13
aV{\u000a  "persons": [\u000a    {\u000a      "expressions": {\u000a        "sadness": {\u000a          "value": 5\u000a        }, \u000a        "neutral": {\u000a          "value": 0\u000a        }, \u000a        "disgust": {\u000a          "value": 5\u000a        }, \u000a        "anger": {\u000a          "value": 1\u000a        }, \u000a        "surprise": {\u000a          "value": 43\u000a        }, \u000a        "fear": {\u000a          "value": 0\u000a        }, \u000a        "happiness": {\u000a          "value": 0\u000a        }\u000a      }\u000a    }\u000a  ], \u000a  "img_height": 333, \u000a  "img_width": 260\u000a}
p14
aV{\u000a  "persons": [\u000a    {\u000a      "expressions": {\u000a        "sadness": {\u000a          "value": 8\u000a        }, \u000a        "neutral": {\u000a          "value": 0\u000a        }, \u000a        "disgust": {\u000a          "value": 3\u000a        }, \u000a        "anger": {\u000a          "value": 3\u000a        }, \u000a        "surprise": {\u000a          "value": 6\u000a        }, \u000a        "fear": {\u000a          "value": 12\u000a        }, \u000a        "happiness": {\u000a          "value": 57\u000a        }\u000a      }\u000a    }\u000a  ], \u000a  "img_height": 333, \u000a  "img_width": 260\u000a}
p15
aV{\u000a  "persons": [\u000a    {\u000a      "expressions": {\u000a        "sadness": {\u000a          "value": 0\u000a        }, \u000a        "neutral": {\u000a          "value": 0\u000a        }, \u000a        "disgust": {\u000a          "value": 6\u000a        }, \u000a        "anger": {\u000a          "value": 6\u000a        }, \u000a        "surprise": {\u000a          "value": 5\u000a        }, \u000a        "fear": {\u000a          "value": 45\u000a        }, \u000a        "happiness": {\u000a          "value": 17\u000a        }\u000a      }\u000a    }\u000a  ], \u000a  "img_height": 333, \u000a  "img_width": 260\u000a}
p16
aV{\u000a  "persons": [\u000a    {\u000a      "expressions": {\u000a        "sadness": {\u000a          "value": 15\u000a        }, \u000a        "neutral": {\u000a          "value": 0\u000a        }, \u000a        "disgust": {\u000a          "value": 1\u000a        }, \u000a        "anger": {\u000a          "value": 0\u000a        }, \u000a        "surprise": {\u000a          "value": 9\u000a        }, \u000a        "fear": {\u000a          "value": 48\u000a        }, \u000a        "happiness": {\u000a          "value": 0\u000a        }\u000a      }\u000a    }\u000a  ], \u000a  "img_height": 333, \u000a  "img_width": 260\u000a}
p17
aV{\u000a  "persons": [\u000a    {\u000a      "expressions": {\u000a        "sadness": {\u000a          "value": 0\u000a        }, \u000a        "neutral": {\u000a          "value": 0\u000a        }, \u000a        "disgust": {\u000a          "value": 19\u000a        }, \u000a        "anger": {\u000a          "value": 4\u000a        }, \u000a        "surprise": {\u000a          "value": 18\u000a        }, \u000a        "fear": {\u000a          "value": 5\u000a        }, \u000a        "happiness": {\u000a          "value": 12\u000a        }\u000a      }\u000a    }\u000a  ], \u000a  "img_height": 333, \u000a  "img_width": 260\u000a}
p18
aV{\u000a  "persons": [\u000a    {\u000a      "expressions": {\u000a        "sadness": {\u000a          "value": 11\u000a        }, \u000a        "neutral": {\u000a          "value": 0\u000a        }, \u000a        "disgust": {\u000a          "value": 3\u000a        }, \u000a        "anger": {\u000a          "value": 2\u000a        }, \u000a        "surprise": {\u000a          "value": 6\u000a        }, \u000a        "fear": {\u000a          "value": 14\u000a        }, \u000a        "happiness": {\u000a          "value": 58\u000a        }\u000a      }\u000a    }\u000a  ], \u000a  "img_height": 333, \u000a  "img_width": 260\u000a}
p19
aV{\u000a  "persons": [\u000a    {\u000a      "expressions": {\u000a        "sadness": {\u000a          "value": 2\u000a        }, \u000a        "neutral": {\u000a          "value": 0\u000a        }, \u000a        "disgust": {\u000a          "value": 21\u000a        }, \u000a        "anger": {\u000a          "value": 4\u000a        }, \u000a        "surprise": {\u000a          "value": 19\u000a        }, \u000a        "fear": {\u000a          "value": 14\u000a        }, \u000a        "happiness": {\u000a          "value": 0\u000a        }\u000a      }\u000a    }\u000a  ], \u000a  "img_height": 333, \u000a  "img_width": 260\u000a}
p20
aV{\u000a  "persons": [\u000a    {\u000a      "expressions": {\u000a        "sadness": {\u000a          "value": 0\u000a        }, \u000a        "neutral": {\u000a          "value": 0\u000a        }, \u000a        "disgust": {\u000a          "value": 19\u000a        }, \u000a        "anger": {\u000a          "value": 3\u000a        }, \u000a        "surprise": {\u000a          "value": 36\u000a        }, \u000a        "fear": {\u000a          "value": 7\u000a        }, \u000a        "happiness": {\u000a          "value": 7\u000a        }\u000a      }\u000a    }\u000a  ], \u000a  "img_height": 333, \u000a  "img_width": 260\u000a}
p21
aV{\u000a  "persons": [\u000a    {\u000a      "expressions": {\u000a        "sadness": {\u000a          "value": 1\u000a        }, \u000a        "neutral": {\u000a          "value": 0\u000a        }, \u000a        "disgust": {\u000a          "value": 5\u000a        }, \u000a        "anger": {\u000a          "value": 5\u000a        }, \u000a        "surprise": {\u000a          "value": 13\u000a        }, \u000a        "fear": {\u000a          "value": 5\u000a        }, \u000a        "happiness": {\u000a          "value": 33\u000a        }\u000a      }\u000a    }\u000a  ], \u000a  "img_height": 333, \u000a  "img_width": 260\u000a}
p22
aV{\u000a  "persons": [\u000a    {\u000a      "expressions": {\u000a        "sadness": {\u000a          "value": 32\u000a        }, \u000a        "neutral": {\u000a          "value": 0\u000a        }, \u000a        "disgust": {\u000a          "value": 6\u000a        }, \u000a        "anger": {\u000a          "value": 4\u000a        }, \u000a        "surprise": {\u000a          "value": 10\u000a        }, \u000a        "fear": {\u000a          "value": 0\u000a        }, \u000a        "happiness": {\u000a          "value": 4\u000a        }\u000a      }\u000a    }\u000a  ], \u000a  "img_height": 333, \u000a  "img_width": 260\u000a}
p23
a.